target datalayout = "e-m:e-p270:32:32-p271:32:32-p272:64:64-i64:64-i128:128-f80:128-n8:16:32:64-S128"
target triple = "x86_64-pc-linux-gnu"

%struct.HTable = type { i32, ptr }
%struct.Module_ = type { ptr, ptr, ptr, i16, i32, ptr, %struct.HTable, ptr, ptr, ptr, ptr, ptr, ptr, ptr, ptr, ptr }
%struct.VHeader_ = type { i32, i32, [0 x i8] }
%struct.CompilationUnit_ = type { ptr, ptr, ptr, ptr, ptr, ptr, ptr, ptr, ptr, ptr, i32, ptr, i8, i8, i8, i8, ptr, ptr, ptr, ptr, ptr, ptr, ptr, ptr, ptr, ptr, ptr, ptr, %struct.HTable, i32, ptr, ptr, %struct.anon.85 }
%struct.anon.85 = type { ptr, ptr }

; Function Attrs: nounwind uwtable
define internal void @vec_resize(ptr noundef %0, i32 noundef %1) #0 {
  %3 = alloca ptr, align 8
  %4 = alloca i32, align 4
  %5 = alloca ptr, align 8
  store ptr %0, ptr %3, align 8
  store i32 %1, ptr %4, align 4
  %6 = load ptr, ptr %3, align 8
  %7 = icmp ne ptr %6, null
  br i1 %7, label %9, label %8

8:                                                ; preds = %2
  br label %15

9:                                                ; preds = %2
  %10 = load ptr, ptr %3, align 8
  store ptr %10, ptr %5, align 8
  %11 = load i32, ptr %4, align 4
  %12 = load ptr, ptr %5, align 8
  %13 = getelementptr inbounds %struct.VHeader_, ptr %12, i64 -1
  %14 = getelementptr inbounds %struct.VHeader_, ptr %13, i32 0, i32 0
  store i32 %11, ptr %14, align 4
  br label %15

15:                                               ; preds = %9, %8
  ret void
}

; Function Attrs: nounwind uwtable
define dso_local void @sema_analysis_pass_register_global_declarations(ptr noundef %0) #0 {
  %2 = alloca i32, align 4
  %3 = alloca ptr, align 8
  %4 = alloca ptr, align 8
  %5 = alloca ptr, align 8
  %6 = alloca ptr, align 8
  %7 = alloca i32, align 4
  %8 = alloca i32, align 4
  %9 = alloca i32, align 4
  %10 = alloca ptr, align 8
  %11 = alloca ptr, align 8
  %12 = alloca ptr, align 8
  %13 = alloca i32, align 4
  %14 = alloca i32, align 4
  %15 = alloca ptr, align 8
  store ptr %0, ptr %12, align 8
  br label %16

16:                                               ; preds = %1
  br label %17

17:                                               ; preds = %16
  store i32 0, ptr %13, align 4
  %18 = load ptr, ptr %12, align 8
  %19 = getelementptr inbounds %struct.Module_, ptr %18, i32 0, i32 7
  %20 = load ptr, ptr %19, align 8
  store ptr %20, ptr %10, align 8
  %21 = load ptr, ptr %10, align 8
  %22 = icmp ne ptr %21, null
  br i1 %22, label %24, label %23

23:                                               ; preds = %17
  store i32 0, ptr %9, align 4
  br label %29

24:                                               ; preds = %17
  %25 = load ptr, ptr %10, align 8
  store ptr %25, ptr %11, align 8
  %26 = load ptr, ptr %11, align 8
  %27 = getelementptr inbounds %struct.VHeader_, ptr %26, i64 -1
  %28 = load i32, ptr %27, align 4
  store i32 %28, ptr %9, align 4
  br label %29

29:                                               ; preds = %24, %23
  %30 = load i32, ptr %9, align 4
  store i32 %30, ptr %14, align 4
  br label %31

31:                                               ; preds = %85, %29
  %32 = load i32, ptr %13, align 4
  %33 = load i32, ptr %14, align 4
  %34 = icmp ult i32 %32, %33
  br i1 %34, label %35, label %88

35:                                               ; preds = %31
  %36 = load ptr, ptr %12, align 8
  %37 = getelementptr inbounds %struct.Module_, ptr %36, i32 0, i32 7
  %38 = load ptr, ptr %37, align 8
  %39 = load i32, ptr %13, align 4
  %40 = zext i32 %39 to i64
  %41 = getelementptr inbounds ptr, ptr %38, i64 %40
  %42 = load ptr, ptr %41, align 8
  store ptr %42, ptr %15, align 8
  %43 = load ptr, ptr %15, align 8
  %44 = getelementptr inbounds %struct.CompilationUnit_, ptr %43, i32 0, i32 11
  %45 = load ptr, ptr %44, align 8
  %46 = icmp ne ptr %45, null
  br i1 %46, label %47, label %48

47:                                               ; preds = %35
  br label %85

48:                                               ; preds = %35
  %49 = load ptr, ptr %12, align 8
  %50 = load ptr, ptr %15, align 8
  %51 = getelementptr inbounds %struct.CompilationUnit_, ptr %50, i32 0, i32 0
  store ptr %49, ptr %51, align 8
  br label %52

52:                                               ; preds = %48
  br label %53

53:                                               ; preds = %52
  %54 = load ptr, ptr %15, align 8
  %55 = load ptr, ptr %15, align 8
  %56 = getelementptr inbounds %struct.CompilationUnit_, ptr %55, i32 0, i32 25
  %57 = load ptr, ptr %56, align 8
  store ptr %54, ptr %5, align 8
  store ptr %57, ptr %6, align 8
  store i32 0, ptr %7, align 4
  %58 = load ptr, ptr %6, align 8
  store ptr %58, ptr %3, align 8
  %59 = load ptr, ptr %3, align 8
  %60 = icmp ne ptr %59, null
  br i1 %60, label %62, label %61

61:                                               ; preds = %53
  store i32 0, ptr %2, align 4
  br label %67

62:                                               ; preds = %53
  %63 = load ptr, ptr %3, align 8
  store ptr %63, ptr %4, align 8
  %64 = load ptr, ptr %4, align 8
  %65 = getelementptr inbounds %struct.VHeader_, ptr %64, i64 -1
  %66 = load i32, ptr %65, align 4
  store i32 %66, ptr %2, align 4
  br label %67

67:                                               ; preds = %62, %61
  %68 = load i32, ptr %2, align 4
  store i32 %68, ptr %8, align 4
  br label %69

69:                                               ; preds = %73, %67
  %70 = load i32, ptr %7, align 4
  %71 = load i32, ptr %8, align 4
  %72 = icmp ult i32 %70, %71
  br i1 %72, label %73, label %82

73:                                               ; preds = %69
  %74 = load ptr, ptr %5, align 8
  %75 = load ptr, ptr %6, align 8
  %76 = load i32, ptr %7, align 4
  %77 = zext i32 %76 to i64
  %78 = getelementptr inbounds ptr, ptr %75, i64 %77
  %79 = load ptr, ptr %78, align 8
  call void @unit_register_global_decl(ptr noundef %74, ptr noundef %79) #8
  %80 = load i32, ptr %7, align 4
  %81 = add i32 %80, 1
  store i32 %81, ptr %7, align 4
  br label %69, !llvm.loop !16

82:                                               ; preds = %69
  %83 = load ptr, ptr %6, align 8
  call void @vec_resize(ptr noundef %83, i32 noundef 0)
  %84 = load ptr, ptr %15, align 8
  call void @sema_process_includes(ptr noundef %84)
  br label %85

85:                                               ; preds = %82, %47
  %86 = load i32, ptr %13, align 4
  %87 = add i32 %86, 1
  store i32 %87, ptr %13, align 4
  br label %31, !llvm.loop !17

88:                                               ; preds = %31
  br label %89

89:                                               ; preds = %88
  br label %90

90:                                               ; preds = %89
  ret void
}