; Function Attrs: nounwind uwtable
define dso_local void @sema_analysis_pass_register_global_declarations(ptr noundef %0) local_unnamed_addr #1 {
  %2 = getelementptr inbounds i8, ptr %0, i64 56
  %3 = load ptr, ptr %2, align 8
  %.not = icmp eq ptr %3, null
  br i1 %.not, label %._crit_edge38, label %4

4:                                                ; preds = %1
  %5 = getelementptr inbounds i8, ptr %3, i64 -8
  %6 = load i32, ptr %5, align 4
  %.not39 = icmp eq i32 %6, 0
  br i1 %.not39, label %._crit_edge38, label %.lr.ph37.preheader

.lr.ph37.preheader:                               ; preds = %4
  %wide.trip.count45 = zext i32 %6 to i64
  br label %.lr.ph37

.lr.ph37:                                         ; preds = %.lr.ph37.preheader, %21
  %indvars.iv42 = phi i64 [ 0, %.lr.ph37.preheader ], [ %indvars.iv.next43, %21 ]
  %7 = load ptr, ptr %2, align 8
  %8 = getelementptr inbounds ptr, ptr %7, i64 %indvars.iv42
  %9 = load ptr, ptr %8, align 8
  %10 = getelementptr inbounds i8, ptr %9, i64 88
  %11 = load ptr, ptr %10, align 8
  %.not32 = icmp eq ptr %11, null
  br i1 %.not32, label %12, label %21

12:                                               ; preds = %.lr.ph37
  store ptr %0, ptr %9, align 8
  %13 = getelementptr inbounds i8, ptr %9, i64 176
  %14 = load ptr, ptr %13, align 8
  %.not33 = icmp eq ptr %14, null
  br i1 %.not33, label %vec_resize.exit, label %15

15:                                               ; preds = %12
  %16 = getelementptr inbounds i8, ptr %14, i64 -8
  %17 = load i32, ptr %16, align 4
  %.not40 = icmp eq i32 %17, 0
  br i1 %.not40, label %.loopexit, label %.lr.ph.preheader

.lr.ph.preheader:                                 ; preds = %15
  %wide.trip.count = zext i32 %17 to i64
  br label %.lr.ph

.lr.ph:                                           ; preds = %.lr.ph.preheader, %.lr.ph
  %indvars.iv = phi i64 [ 0, %.lr.ph.preheader ], [ %indvars.iv.next, %.lr.ph ]
  %18 = getelementptr inbounds ptr, ptr %14, i64 %indvars.iv
  %19 = load ptr, ptr %18, align 8
  tail call void @unit_register_global_decl(ptr noundef nonnull %9, ptr noundef %19) #11
  %indvars.iv.next = add nuw nsw i64 %indvars.iv, 1
  %exitcond.not = icmp eq i64 %indvars.iv.next, %wide.trip.count
  br i1 %exitcond.not, label %.loopexit, label %.lr.ph, !llvm.loop !16

.loopexit:                                        ; preds = %.lr.ph, %15
  %20 = getelementptr inbounds i8, ptr %14, i64 -8
  store i32 0, ptr %20, align 4
  br label %vec_resize.exit

vec_resize.exit:                                  ; preds = %12, %.loopexit
  tail call void @sema_process_includes(ptr noundef nonnull %9)
  br label %21

21:                                               ; preds = %.lr.ph37, %vec_resize.exit
  %indvars.iv.next43 = add nuw nsw i64 %indvars.iv42, 1
  %exitcond46.not = icmp eq i64 %indvars.iv.next43, %wide.trip.count45
  br i1 %exitcond46.not, label %._crit_edge38, label %.lr.ph37, !llvm.loop !17

._crit_edge38:                                    ; preds = %21, %1, %4
  ret void
}